; Function Attrs: nounwind uwtable
define hidden range(i32 0, 3) i32 @exr_attr_string_destroy(ptr noundef readonly %0, ptr noundef %1) local_unnamed_addr #0 {
  %.not = icmp eq ptr %0, null
  br i1 %.not, label %15, label %3

3:                                                ; preds = %2
  %.not10 = icmp eq ptr %1, null
  br i1 %.not10, label %15, label %4

4:                                                ; preds = %3
  %5 = getelementptr inbounds nuw i8, ptr %1, i64 8
  %6 = load ptr, ptr %5, align 8, !tbaa !24
  %.not11 = icmp eq ptr %6, null
  br i1 %.not11, label %14, label %7

7:                                                ; preds = %4
  %8 = getelementptr inbounds nuw i8, ptr %1, i64 4
  %9 = load i32, ptr %8, align 4, !tbaa !27
  %10 = icmp sgt i32 %9, 0
  br i1 %10, label %11, label %14

11:                                               ; preds = %7
  %12 = getelementptr inbounds nuw i8, ptr %0, i64 96
  %13 = load ptr, ptr %12, align 8, !tbaa !29
  tail call void %13(ptr noundef nonnull %6) #4
  br label %14

14:                                               ; preds = %11, %7, %4
  tail call void @llvm.memset.p0.i64(ptr noundef nonnull align 8 dereferenceable(16) %1, i8 0, i64 16, i1 false)
  br label %15

15:                                               ; preds = %3, %14, %2
  %.0 = phi i32 [ 2, %2 ], [ 0, %14 ], [ 0, %3 ]
  ret i32 %.0
}